; Function Attrs: nofree norecurse nosync nounwind memory(read, inaccessiblemem: none) uwtable
define dso_local noundef zeroext i1 @IsEveryWorkerIdle(ptr noundef readonly captures(none) %0) local_unnamed_addr #9 {
  %2 = load i32, ptr %0, align 8
  %3 = icmp slt i32 %2, 1
  br i1 %3, label %._crit_edge, label %.lr.ph

.lr.ph:                                           ; preds = %1
  %4 = getelementptr inbounds nuw i8, ptr %0, i64 16
  %5 = load ptr, ptr %4, align 8
  %wide.trip.count = zext nneg i32 %2 to i64
  br label %6

6:                                                ; preds = %6, %.lr.ph
  %indvars.iv = phi i64 [ 0, %.lr.ph ], [ %indvars.iv.next, %6 ]
  %7 = getelementptr inbounds nuw %struct.ParallelSlot, ptr %5, i64 %indvars.iv
  %8 = load i32, ptr %7, align 8
  %.not = icmp eq i32 %8, 1
  %indvars.iv.next = add nuw nsw i64 %indvars.iv, 1
  %exitcond.not = icmp ne i64 %indvars.iv.next, %wide.trip.count
  %or.cond.not = select i1 %.not, i1 %exitcond.not, i1 false
  br i1 %or.cond.not, label %6, label %._crit_edge, !llvm.loop !20

._crit_edge:                                      ; preds = %6, %1
  %.lcssa = phi i1 [ true, %1 ], [ %.not, %6 ]
  ret i1 %.lcssa
}